; ModuleID = 'source-C-CXX/22/439.cpp'
source_filename = "source-C-CXX/22/439.cpp"
target datalayout = "e-m:e-p270:32:32-p271:32:32-p272:64:64-i64:64-f80:128-n8:16:32:64-S128"
target triple = "x86_64-pc-linux-gnu"

%"class.std::ios_base::Init" = type { i8 }
%"class.std::basic_istream" = type { i32 (...)**, i64, %"class.std::basic_ios" }
%"class.std::basic_ios" = type { %"class.std::ios_base", %"class.std::basic_ostream"*, i8, i8, %"class.std::basic_streambuf"*, %"class.std::ctype"*, %"class.std::num_put"*, %"class.std::num_get"* }
%"class.std::ios_base" = type { i32 (...)**, i64, i64, i32, i32, i32, %"struct.std::ios_base::_Callback_list"*, %"struct.std::ios_base::_Words", [8 x %"struct.std::ios_base::_Words"], i32, %"struct.std::ios_base::_Words"*, %"class.std::locale" }
%"struct.std::ios_base::_Callback_list" = type { %"struct.std::ios_base::_Callback_list"*, void (i32, %"class.std::ios_base"*, i32)*, i32, i32 }
%"struct.std::ios_base::_Words" = type { i8*, i64 }
%"class.std::locale" = type { %"class.std::locale::_Impl"* }
%"class.std::locale::_Impl" = type { i32, %"class.std::locale::facet"**, i64, %"class.std::locale::facet"**, i8** }
%"class.std::locale::facet" = type <{ i32 (...)**, i32, [4 x i8] }>
%"class.std::basic_ostream" = type { i32 (...)**, %"class.std::basic_ios" }
%"class.std::basic_streambuf" = type { i32 (...)**, i8*, i8*, i8*, i8*, i8*, i8*, %"class.std::locale" }
%"class.std::ctype" = type <{ %"class.std::locale::facet.base", [4 x i8], %struct.__locale_struct*, i8, [7 x i8], i32*, i32*, i16*, i8, [256 x i8], [256 x i8], i8, [6 x i8] }>
%"class.std::locale::facet.base" = type <{ i32 (...)**, i32 }>
%struct.__locale_struct = type { [13 x %struct.__locale_data*], i16*, i32*, i32*, [13 x i8*] }
%struct.__locale_data = type opaque
%"class.std::num_put" = type { %"class.std::locale::facet.base", [4 x i8] }
%"class.std::num_get" = type { %"class.std::locale::facet.base", [4 x i8] }

@_ZStL8__ioinit = internal global %"class.std::ios_base::Init" zeroinitializer, align 1
@__dso_handle = external hidden global i8
@_ZSt3cin = external global %"class.std::basic_istream", align 8
@_ZSt4cout = external global %"class.std::basic_ostream", align 8
@.str = private unnamed_addr constant [2 x i8] c" \00", align 1
@llvm.global_ctors = appending global [1 x { i32, void ()*, i8* }] [{ i32, void ()*, i8* } { i32 65535, void ()* @_GLOBAL__sub_I_439.cpp, i8* null }]

declare void @_ZNSt8ios_base4InitC1Ev(%"class.std::ios_base::Init"* nonnull align 1 dereferenceable(1)) unnamed_addr #0

; Function Attrs: nounwind
declare void @_ZNSt8ios_base4InitD1Ev(%"class.std::ios_base::Init"* nonnull align 1 dereferenceable(1)) unnamed_addr #1

; Function Attrs: nofree nounwind
declare i32 @__cxa_atexit(void (i8*)*, i8*, i8*) local_unnamed_addr #2

; Function Attrs: mustprogress norecurse sspstrong uwtable
define dso_local i32 @main() local_unnamed_addr #3 {
  %1 = alloca i8, align 1
  %2 = alloca i8, align 1
  %3 = alloca [100 x i8], align 16
  %4 = alloca [100 x i32], align 16
  %5 = getelementptr inbounds [100 x i8], [100 x i8]* %3, i64 0, i64 0
  call void @llvm.lifetime.start.p0i8(i64 100, i8* nonnull %5) #8
  %6 = load i8*, i8** bitcast (%"class.std::basic_istream"* @_ZSt3cin to i8**), align 8, !tbaa !5
  %7 = getelementptr i8, i8* %6, i64 -24
  %8 = bitcast i8* %7 to i64*
  %9 = load i64, i64* %8, align 8
  %10 = add nsw i64 %9, 240
  %11 = getelementptr inbounds i8, i8* bitcast (%"class.std::basic_istream"* @_ZSt3cin to i8*), i64 %10
  %12 = bitcast i8* %11 to %"class.std::ctype"**
  %13 = load %"class.std::ctype"*, %"class.std::ctype"** %12, align 8, !tbaa !8
  %14 = icmp eq %"class.std::ctype"* %13, null
  br i1 %14, label %15, label %16

15:                                               ; preds = %0
  tail call void @_ZSt16__throw_bad_castv() #9
  unreachable

16:                                               ; preds = %0
  %17 = getelementptr inbounds %"class.std::ctype", %"class.std::ctype"* %13, i64 0, i32 8
  %18 = load i8, i8* %17, align 8, !tbaa !13
  %19 = icmp eq i8 %18, 0
  br i1 %19, label %23, label %20

20:                                               ; preds = %16
  %21 = getelementptr inbounds %"class.std::ctype", %"class.std::ctype"* %13, i64 0, i32 9, i64 10
  %22 = load i8, i8* %21, align 1, !tbaa !15
  br label %29

23:                                               ; preds = %16
  tail call void @_ZNKSt5ctypeIcE13_M_widen_initEv(%"class.std::ctype"* nonnull align 8 dereferenceable(570) %13)
  %24 = bitcast %"class.std::ctype"* %13 to i8 (%"class.std::ctype"*, i8)***
  %25 = load i8 (%"class.std::ctype"*, i8)**, i8 (%"class.std::ctype"*, i8)*** %24, align 8, !tbaa !5
  %26 = getelementptr inbounds i8 (%"class.std::ctype"*, i8)*, i8 (%"class.std::ctype"*, i8)** %25, i64 6
  %27 = load i8 (%"class.std::ctype"*, i8)*, i8 (%"class.std::ctype"*, i8)** %26, align 8
  %28 = tail call signext i8 %27(%"class.std::ctype"* nonnull align 8 dereferenceable(570) %13, i8 signext 10)
  br label %29

29:                                               ; preds = %20, %23
  %30 = phi i8 [ %22, %20 ], [ %28, %23 ]
  %31 = call nonnull align 8 dereferenceable(16) %"class.std::basic_istream"* @_ZNSi7getlineEPclc(%"class.std::basic_istream"* nonnull align 8 dereferenceable(16) @_ZSt3cin, i8* nonnull %5, i64 100, i8 signext %30)
  %32 = bitcast [100 x i32]* %4 to i8*
  call void @llvm.lifetime.start.p0i8(i64 400, i8* nonnull %32) #8
  %33 = call i64 @strlen(i8* noundef nonnull %5) #10
  %34 = trunc i64 %33 to i32
  %35 = icmp sgt i32 %34, 0
  br i1 %35, label %38, label %36

36:                                               ; preds = %29
  %37 = getelementptr inbounds [100 x i32], [100 x i32]* %4, i64 0, i64 1
  store i32 %34, i32* %37, align 4, !tbaa !16
  br label %84

38:                                               ; preds = %29
  %39 = and i64 %33, 4294967295
  %40 = and i64 %33, 1
  %41 = icmp eq i64 %39, 1
  br i1 %41, label %62, label %42

42:                                               ; preds = %38
  %43 = sub nsw i64 %39, %40
  br label %44

44:                                               ; preds = %131, %42
  %45 = phi i64 [ 0, %42 ], [ %133, %131 ]
  %46 = phi i32 [ 0, %42 ], [ %132, %131 ]
  %47 = phi i64 [ %43, %42 ], [ %134, %131 ]
  %48 = getelementptr inbounds [100 x i8], [100 x i8]* %3, i64 0, i64 %45
  %49 = load i8, i8* %48, align 2, !tbaa !15
  %50 = icmp eq i8 %49, 32
  br i1 %50, label %51, label %56

51:                                               ; preds = %44
  %52 = add nsw i32 %46, 1
  %53 = sext i32 %52 to i64
  %54 = getelementptr inbounds [100 x i32], [100 x i32]* %4, i64 0, i64 %53
  %55 = trunc i64 %45 to i32
  store i32 %55, i32* %54, align 4, !tbaa !16
  br label %56

56:                                               ; preds = %44, %51
  %57 = phi i32 [ %52, %51 ], [ %46, %44 ]
  %58 = or i64 %45, 1
  %59 = getelementptr inbounds [100 x i8], [100 x i8]* %3, i64 0, i64 %58
  %60 = load i8, i8* %59, align 1, !tbaa !15
  %61 = icmp eq i8 %60, 32
  br i1 %61, label %126, label %131

62:                                               ; preds = %131, %38
  %63 = phi i32 [ undef, %38 ], [ %132, %131 ]
  %64 = phi i64 [ 0, %38 ], [ %133, %131 ]
  %65 = phi i32 [ 0, %38 ], [ %132, %131 ]
  %66 = icmp eq i64 %40, 0
  br i1 %66, label %76, label %67

67:                                               ; preds = %62
  %68 = getelementptr inbounds [100 x i8], [100 x i8]* %3, i64 0, i64 %64
  %69 = load i8, i8* %68, align 1, !tbaa !15
  %70 = icmp eq i8 %69, 32
  br i1 %70, label %71, label %76

71:                                               ; preds = %67
  %72 = add nsw i32 %65, 1
  %73 = sext i32 %72 to i64
  %74 = getelementptr inbounds [100 x i32], [100 x i32]* %4, i64 0, i64 %73
  %75 = trunc i64 %64 to i32
  store i32 %75, i32* %74, align 4, !tbaa !16
  br label %76

76:                                               ; preds = %71, %67, %62
  %77 = phi i32 [ %63, %62 ], [ %72, %71 ], [ %65, %67 ]
  %78 = add i32 %77, 1
  %79 = sext i32 %78 to i64
  %80 = getelementptr inbounds [100 x i32], [100 x i32]* %4, i64 0, i64 %79
  store i32 %34, i32* %80, align 4, !tbaa !16
  %81 = icmp sgt i32 %77, 0
  br i1 %81, label %82, label %84

82:                                               ; preds = %76
  %83 = zext i32 %78 to i64
  br label %90

84:                                               ; preds = %114, %36, %76
  %85 = getelementptr inbounds [100 x i32], [100 x i32]* %4, i64 0, i64 1
  %86 = load i32, i32* %85, align 4, !tbaa !16
  %87 = icmp sgt i32 %86, 0
  br i1 %87, label %88, label %125

88:                                               ; preds = %84
  %89 = zext i32 %86 to i64
  br label %118

90:                                               ; preds = %82, %114
  %91 = phi i64 [ %83, %82 ], [ %117, %114 ]
  %92 = phi i32 [ %78, %82 ], [ %93, %114 ]
  %93 = add nsw i32 %92, -1
  %94 = zext i32 %93 to i64
  %95 = getelementptr inbounds [100 x i32], [100 x i32]* %4, i64 0, i64 %94
  %96 = load i32, i32* %95, align 4, !tbaa !16
  %97 = trunc i64 %91 to i32
  %98 = shl i64 %91, 32
  %99 = ashr exact i64 %98, 32
  %100 = getelementptr inbounds [100 x i32], [100 x i32]* %4, i64 0, i64 %99
  %101 = load i32, i32* %100, align 4, !tbaa !16
  %102 = add i32 %96, 1
  %103 = icmp slt i32 %102, %101
  br i1 %103, label %104, label %114

104:                                              ; preds = %90
  %105 = sext i32 %102 to i64
  br label %106

106:                                              ; preds = %104, %106
  %107 = phi i64 [ %105, %104 ], [ %111, %106 ]
  %108 = getelementptr inbounds [100 x i8], [100 x i8]* %3, i64 0, i64 %107
  %109 = load i8, i8* %108, align 1, !tbaa !15
  call void @llvm.lifetime.start.p0i8(i64 1, i8* nonnull %2)
  store i8 %109, i8* %2, align 1, !tbaa !15
  %110 = call nonnull align 8 dereferenceable(8) %"class.std::basic_ostream"* @_ZSt16__ostream_insertIcSt11char_traitsIcEERSt13basic_ostreamIT_T0_ES6_PKS3_l(%"class.std::basic_ostream"* nonnull align 8 dereferenceable(8) @_ZSt4cout, i8* nonnull %2, i64 1)
  call void @llvm.lifetime.end.p0i8(i64 1, i8* nonnull %2)
  %111 = add nsw i64 %107, 1
  %112 = trunc i64 %111 to i32
  %113 = icmp eq i32 %101, %112
  br i1 %113, label %114, label %106, !llvm.loop !18

114:                                              ; preds = %106, %90
  %115 = call nonnull align 8 dereferenceable(8) %"class.std::basic_ostream"* @_ZSt16__ostream_insertIcSt11char_traitsIcEERSt13basic_ostreamIT_T0_ES6_PKS3_l(%"class.std::basic_ostream"* nonnull align 8 dereferenceable(8) @_ZSt4cout, i8* nonnull getelementptr inbounds ([2 x i8], [2 x i8]* @.str, i64 0, i64 0), i64 1)
  %116 = icmp sgt i32 %97, 2
  %117 = add nsw i64 %91, -1
  br i1 %116, label %90, label %84, !llvm.loop !20

118:                                              ; preds = %88, %118
  %119 = phi i64 [ 0, %88 ], [ %123, %118 ]
  %120 = getelementptr inbounds [100 x i8], [100 x i8]* %3, i64 0, i64 %119
  %121 = load i8, i8* %120, align 1, !tbaa !15
  call void @llvm.lifetime.start.p0i8(i64 1, i8* nonnull %1)
  store i8 %121, i8* %1, align 1, !tbaa !15
  %122 = call nonnull align 8 dereferenceable(8) %"class.std::basic_ostream"* @_ZSt16__ostream_insertIcSt11char_traitsIcEERSt13basic_ostreamIT_T0_ES6_PKS3_l(%"class.std::basic_ostream"* nonnull align 8 dereferenceable(8) @_ZSt4cout, i8* nonnull %1, i64 1)
  call void @llvm.lifetime.end.p0i8(i64 1, i8* nonnull %1)
  %123 = add nuw nsw i64 %119, 1
  %124 = icmp eq i64 %123, %89
  br i1 %124, label %125, label %118, !llvm.loop !21

125:                                              ; preds = %118, %84
  call void @llvm.lifetime.end.p0i8(i64 400, i8* nonnull %32) #8
  call void @llvm.lifetime.end.p0i8(i64 100, i8* nonnull %5) #8
  ret i32 0

126:                                              ; preds = %56
  %127 = add nsw i32 %57, 1
  %128 = sext i32 %127 to i64
  %129 = getelementptr inbounds [100 x i32], [100 x i32]* %4, i64 0, i64 %128
  %130 = trunc i64 %58 to i32
  store i32 %130, i32* %129, align 4, !tbaa !16
  br label %131

131:                                              ; preds = %126, %56
  %132 = phi i32 [ %127, %126 ], [ %57, %56 ]
  %133 = add nuw nsw i64 %45, 2
  %134 = add i64 %47, -2
  %135 = icmp eq i64 %134, 0
  br i1 %135, label %62, label %44, !llvm.loop !22
}

; Function Attrs: argmemonly mustprogress nofree nosync nounwind willreturn
declare void @llvm.lifetime.start.p0i8(i64 immarg, i8* nocapture) #4

; Function Attrs: argmemonly mustprogress nofree nounwind readonly willreturn
declare i64 @strlen(i8* nocapture) local_unnamed_addr #5

; Function Attrs: argmemonly mustprogress nofree nosync nounwind willreturn
declare void @llvm.lifetime.end.p0i8(i64 immarg, i8* nocapture) #4

declare nonnull align 8 dereferenceable(16) %"class.std::basic_istream"* @_ZNSi7getlineEPclc(%"class.std::basic_istream"* nonnull align 8 dereferenceable(16), i8*, i64, i8 signext) local_unnamed_addr #0

; Function Attrs: noreturn
declare void @_ZSt16__throw_bad_castv() local_unnamed_addr #6

declare void @_ZNKSt5ctypeIcE13_M_widen_initEv(%"class.std::ctype"* nonnull align 8 dereferenceable(570)) local_unnamed_addr #0

declare nonnull align 8 dereferenceable(8) %"class.std::basic_ostream"* @_ZSt16__ostream_insertIcSt11char_traitsIcEERSt13basic_ostreamIT_T0_ES6_PKS3_l(%"class.std::basic_ostream"* nonnull align 8 dereferenceable(8), i8*, i64) local_unnamed_addr #0

; Function Attrs: sspstrong uwtable
define internal void @_GLOBAL__sub_I_439.cpp() #7 section ".text.startup" {
  tail call void @_ZNSt8ios_base4InitC1Ev(%"class.std::ios_base::Init"* nonnull align 1 dereferenceable(1) @_ZStL8__ioinit)
  %1 = tail call i32 @__cxa_atexit(void (i8*)* bitcast (void (%"class.std::ios_base::Init"*)* @_ZNSt8ios_base4InitD1Ev to void (i8*)*), i8* getelementptr inbounds (%"class.std::ios_base::Init", %"class.std::ios_base::Init"* @_ZStL8__ioinit, i64 0, i32 0), i8* nonnull @__dso_handle) #8
  ret void
}


!llvm.module.flags = !{!0, !1, !2, !3}
!llvm.ident = !{!4}

!0 = !{i32 1, !"wchar_size", i32 4}
!1 = !{i32 7, !"PIC Level", i32 2}
!2 = !{i32 7, !"PIE Level", i32 2}
!3 = !{i32 7, !"uwtable", i32 1}
!4 = !{!"clang version 13.0.0"}
!5 = !{!6, !6, i64 0}
!6 = !{!"vtable pointer", !7, i64 0}
!7 = !{!"Simple C++ TBAA"}
!8 = !{!9, !10, i64 240}
!9 = !{!"_ZTSSt9basic_iosIcSt11char_traitsIcEE", !10, i64 216, !11, i64 224, !12, i64 225, !10, i64 232, !10, i64 240, !10, i64 248, !10, i64 256}
!10 = !{!"any pointer", !11, i64 0}
!11 = !{!"omnipotent char", !7, i64 0}
!12 = !{!"bool", !11, i64 0}
!13 = !{!14, !11, i64 56}
!14 = !{!"_ZTSSt5ctypeIcE", !10, i64 16, !12, i64 24, !10, i64 32, !10, i64 40, !10, i64 48, !11, i64 56, !11, i64 57, !11, i64 313, !11, i64 569}
!15 = !{!11, !11, i64 0}
!16 = !{!17, !17, i64 0}
!17 = !{!"int", !11, i64 0}
!18 = distinct !{!18, !19}
!19 = !{!"llvm.loop.mustprogress"}
!20 = distinct !{!20, !19}
!21 = distinct !{!21, !19}
!22 = distinct !{!22, !19}
